ccopy_reg
_reconstructor
p0
(cpacman.model.routing_tables.multicast_routing_table
MulticastRoutingTable
p1
c__builtin__
object
p2
Ntp3
Rp4
(dp5
S'_multicast_routing_entries'
p6
(lp7
g0
(cspinn_machine.multicast_routing_entry
MulticastRoutingEntry
p8
g2
Ntp9
Rp10
(dp11
S'_processor_ids'
p12
c__builtin__
set
p13
((lp14
I1
aI2
aI3
aI4
aI5
aI6
aI7
aI8
aI9
aI10
aI11
aI12
aI13
aI14
atp15
Rp16
sS'_defaultable'
p17
I00
sS'_routing_key_entry'
p18
L1280L
sS'_link_ids'
p19
g13
((lp20
I3
atp21
Rp22
sS'_mask'
p23
I4294967168
sbag0
(g8
g2
Ntp24
Rp25
(dp26
g12
g13
((lp27
I1
aI2
aI3
aI4
aI5
aI6
aI7
aI8
aI9
aI10
aI11
aI12
aI13
aI14
atp28
Rp29
sg17
I00
sg18
L1664L
sg19
g13
((lp30
I3
atp31
Rp32
sg23
I4294967168
sbag0
(g8
g2
Ntp33
Rp34
(dp35
g12
g13
((lp36
I1
aI2
aI3
aI4
aI5
aI6
aI7
aI8
aI9
aI10
aI11
aI12
aI13
aI14
atp37
Rp38
sg17
I00
sg18
L768L
sg19
g13
((lp39
I3
atp40
Rp41
sg23
I4294967168
sbag0
(g8
g2
Ntp42
Rp43
(dp44
g12
g13
((lp45
I1
aI2
aI3
aI4
aI5
aI6
aI7
aI8
aI9
aI10
aI11
aI12
aI13
aI14
atp46
Rp47
sg17
I00
sg18
L512L
sg19
g13
((lp48
I3
atp49
Rp50
sg23
I4294967168
sbag0
(g8
g2
Ntp51
Rp52
(dp53
g12
g13
((lp54
I1
aI2
aI3
aI4
aI5
aI6
aI7
aI8
aI9
aI10
aI11
aI12
aI13
aI14
atp55
Rp56
sg17
I00
sg18
L1024L
sg19
g13
((lp57
I3
atp58
Rp59
sg23
I4294967168
sbag0
(g8
g2
Ntp60
Rp61
(dp62
g12
g13
((lp63
I1
aI2
aI3
aI4
aI5
aI6
aI7
aI8
aI9
aI10
aI11
aI12
aI13
aI14
atp64
Rp65
sg17
I00
sg18
L384L
sg19
g13
((lp66
tp67
Rp68
sg23
I4294967168
sbag0
(g8
g2
Ntp69
Rp70
(dp71
g12
g13
((lp72
I1
aI2
aI3
aI4
aI5
aI6
aI7
aI8
aI9
aI10
aI11
aI12
aI13
aI14
atp73
Rp74
sg17
I00
sg18
L1152L
sg19
g13
((lp75
I3
atp76
Rp77
sg23
I4294967168
sbag0
(g8
g2
Ntp78
Rp79
(dp80
g12
g13
((lp81
I1
aI2
aI3
aI4
aI5
aI6
aI7
aI8
aI9
aI10
aI11
aI12
aI13
aI14
atp82
Rp83
sg17
I00
sg18
L896L
sg19
g13
((lp84
I3
atp85
Rp86
sg23
I4294967168
sbag0
(g8
g2
Ntp87
Rp88
(dp89
g12
g13
((lp90
I1
aI2
aI3
aI4
aI5
aI6
aI7
aI8
aI9
aI10
aI11
aI12
aI13
aI14
atp91
Rp92
sg17
I00
sg18
L1792L
sg19
g13
((lp93
I3
atp94
Rp95
sg23
I4294967168
sbag0
(g8
g2
Ntp96
Rp97
(dp98
g12
g13
((lp99
I1
aI2
aI3
aI4
aI5
aI6
aI7
aI8
aI9
aI10
aI11
aI12
aI13
aI14
atp100
Rp101
sg17
I00
sg18
L1536L
sg19
g13
((lp102
I3
atp103
Rp104
sg23
I4294967168
sbag0
(g8
g2
Ntp105
Rp106
(dp107
g12
g13
((lp108
I1
aI2
aI3
aI4
aI5
aI6
aI7
aI8
aI9
aI10
aI11
aI12
aI13
aI14
atp109
Rp110
sg17
I00
sg18
L0L
sg19
g13
((lp111
I3
atp112
Rp113
sg23
I4294967168
sbag0
(g8
g2
Ntp114
Rp115
(dp116
g12
g13
((lp117
I1
aI2
aI3
aI4
aI5
aI6
aI7
aI8
aI9
aI10
aI11
aI12
aI13
aI14
atp118
Rp119
sg17
I00
sg18
L256L
sg19
g13
((lp120
I3
atp121
Rp122
sg23
I4294967168
sbag0
(g8
g2
Ntp123
Rp124
(dp125
g12
g13
((lp126
I1
aI2
aI3
aI4
aI5
aI6
aI7
aI8
aI9
aI10
aI11
aI12
aI13
aI14
atp127
Rp128
sg17
I00
sg18
L128L
sg19
g13
((lp129
I3
atp130
Rp131
sg23
I4294967168
sbag0
(g8
g2
Ntp132
Rp133
(dp134
g12
g13
((lp135
I1
aI2
aI3
aI4
aI5
aI6
aI7
aI8
aI9
aI10
aI11
aI12
aI13
aI14
atp136
Rp137
sg17
I00
sg18
L1920L
sg19
g13
((lp138
I3
atp139
Rp140
sg23
I4294967264
sbag0
(g8
g2
Ntp141
Rp142
(dp143
g12
g13
((lp144
I1
aI2
aI3
aI4
aI5
aI6
aI7
aI8
aI9
aI10
aI11
aI12
aI13
aI14
atp145
Rp146
sg17
I00
sg18
L640L
sg19
g13
((lp147
I3
atp148
Rp149
sg23
I4294967168
sbag0
(g8
g2
Ntp150
Rp151
(dp152
g12
g13
((lp153
I1
aI2
aI3
aI4
aI5
aI6
aI7
aI8
aI9
aI10
aI11
aI12
aI13
aI14
atp154
Rp155
sg17
I00
sg18
L1408L
sg19
g13
((lp156
I3
atp157
Rp158
sg23
I4294967168
sbasS'_multicast_routing_entries_by_routing_entry_key'
p159
ccollections
OrderedDict
p160
((lp161
(lp162
(L1280L
I4294967168
tp163
ag10
aa(lp164
(L1664L
I4294967168
tp165
ag25
aa(lp166
(L768L
I4294967168
tp167
ag34
aa(lp168
(L512L
I4294967168
tp169
ag43
aa(lp170
(L1024L
I4294967168
tp171
ag52
aa(lp172
(L384L
I4294967168
tp173
ag61
aa(lp174
(L1152L
I4294967168
tp175
ag70
aa(lp176
(L896L
I4294967168
tp177
ag79
aa(lp178
(L1792L
I4294967168
tp179
ag88
aa(lp180
(L1536L
I4294967168
tp181
ag97
aa(lp182
(L0L
I4294967168
tp183
ag106
aa(lp184
(L256L
I4294967168
tp185
ag115
aa(lp186
(L128L
I4294967168
tp187
ag124
aa(lp188
(L1920L
I4294967264
tp189
ag133
aa(lp190
(L640L
I4294967168
tp191
ag142
aa(lp192
(L1408L
I4294967168
tp193
ag151
aatp194
Rp195
sS'_y'
p196
I0
sS'_x'
p197
I1
sb.