ccopy_reg
_reconstructor
p0
(cpacman.model.routing_tables.multicast_routing_table
MulticastRoutingTable
p1
c__builtin__
object
p2
Ntp3
Rp4
(dp5
S'_multicast_routing_entries'
p6
(lp7
g0
(cspinn_machine.multicast_routing_entry
MulticastRoutingEntry
p8
g2
Ntp9
Rp10
(dp11
S'_processor_ids'
p12
c__builtin__
set
p13
((lp14
I1
aI2
aI3
aI4
aI5
aI6
aI7
aI8
aI9
aI10
aI11
aI12
aI13
aI14
atp15
Rp16
sS'_defaultable'
p17
I00
sS'_routing_key_entry'
p18
L1664L
sS'_link_ids'
p19
g13
((lp20
I3
atp21
Rp22
sS'_mask'
p23
I4294967232
sbag0
(g8
g2
Ntp24
Rp25
(dp26
g12
g13
((lp27
I1
aI2
aI3
aI4
aI5
aI6
aI7
aI8
aI9
aI10
aI11
aI12
aI13
aI14
atp28
Rp29
sg17
I00
sg18
L1600L
sg19
g13
((lp30
I3
atp31
Rp32
sg23
I4294967232
sbag0
(g8
g2
Ntp33
Rp34
(dp35
g12
g13
((lp36
I1
aI2
aI3
aI4
aI5
aI6
aI7
aI8
aI9
aI10
aI11
aI12
aI13
aI14
atp37
Rp38
sg17
I00
sg18
L1408L
sg19
g13
((lp39
I3
atp40
Rp41
sg23
I4294967232
sbag0
(g8
g2
Ntp42
Rp43
(dp44
g12
g13
((lp45
I1
aI2
aI3
aI4
aI5
aI6
aI7
aI8
aI9
aI10
aI11
aI12
aI13
aI14
atp46
Rp47
sg17
I00
sg18
L1344L
sg19
g13
((lp48
I3
atp49
Rp50
sg23
I4294967232
sbag0
(g8
g2
Ntp51
Rp52
(dp53
g12
g13
((lp54
I1
aI2
aI3
aI4
aI5
aI6
aI7
aI8
aI9
aI10
aI11
aI12
aI13
aI14
atp55
Rp56
sg17
I00
sg18
L256L
sg19
g13
((lp57
tp58
Rp59
sg23
I4294967232
sbag0
(g8
g2
Ntp60
Rp61
(dp62
g12
g13
((lp63
I1
aI2
aI3
aI4
aI5
aI6
aI7
aI8
aI9
aI10
aI11
aI12
aI13
aI14
atp64
Rp65
sg17
I00
sg18
L1216L
sg19
g13
((lp66
I3
atp67
Rp68
sg23
I4294967232
sbag0
(g8
g2
Ntp69
Rp70
(dp71
g12
g13
((lp72
I1
aI2
aI3
aI4
aI5
aI6
aI7
aI8
aI9
aI10
aI11
aI12
aI13
aI14
atp73
Rp74
sg17
I00
sg18
L1088L
sg19
g13
((lp75
I3
atp76
Rp77
sg23
I4294967232
sbag0
(g8
g2
Ntp78
Rp79
(dp80
g12
g13
((lp81
I1
aI2
aI3
aI4
aI5
aI6
aI7
aI8
aI9
aI10
aI11
aI12
aI13
aI14
atp82
Rp83
sg17
I00
sg18
L960L
sg19
g13
((lp84
tp85
Rp86
sg23
I4294967232
sbag0
(g8
g2
Ntp87
Rp88
(dp89
g12
g13
((lp90
I1
aI2
aI3
aI4
aI5
aI6
aI7
aI8
aI9
aI10
aI11
aI12
aI13
aI14
atp91
Rp92
sg17
I00
sg18
L896L
sg19
g13
((lp93
tp94
Rp95
sg23
I4294967232
sbag0
(g8
g2
Ntp96
Rp97
(dp98
g12
g13
((lp99
I1
aI2
aI3
aI4
aI5
aI6
aI7
aI8
aI9
aI10
aI11
aI12
aI13
aI14
atp100
Rp101
sg17
I00
sg18
L832L
sg19
g13
((lp102
tp103
Rp104
sg23
I4294967232
sbag0
(g8
g2
Ntp105
Rp106
(dp107
g12
g13
((lp108
I1
aI2
aI3
aI4
aI5
aI6
aI7
aI8
aI9
aI10
aI11
aI12
aI13
aI14
atp109
Rp110
sg17
I00
sg18
L1536L
sg19
g13
((lp111
I3
atp112
Rp113
sg23
I4294967232
sbag0
(g8
g2
Ntp114
Rp115
(dp116
g12
g13
((lp117
I1
aI2
aI3
aI4
aI5
aI6
aI7
aI8
aI9
aI10
aI11
aI12
aI13
aI14
atp118
Rp119
sg17
I00
sg18
L640L
sg19
g13
((lp120
tp121
Rp122
sg23
I4294967232
sbag0
(g8
g2
Ntp123
Rp124
(dp125
g12
g13
((lp126
I1
aI2
aI3
aI4
aI5
aI6
aI7
aI8
aI9
aI10
aI11
aI12
aI13
aI14
atp127
Rp128
sg17
I00
sg18
L512L
sg19
g13
((lp129
tp130
Rp131
sg23
I4294967232
sbag0
(g8
g2
Ntp132
Rp133
(dp134
g12
g13
((lp135
I1
aI2
aI3
aI4
aI5
aI6
aI7
aI8
aI9
aI10
aI11
aI12
aI13
aI14
atp136
Rp137
sg17
I00
sg18
L128L
sg19
g13
((lp138
tp139
Rp140
sg23
I4294967232
sbag0
(g8
g2
Ntp141
Rp142
(dp143
g12
g13
((lp144
I1
aI2
aI3
aI4
aI5
aI6
aI7
aI8
aI9
aI10
aI11
aI12
aI13
aI14
atp145
Rp146
sg17
I00
sg18
L384L
sg19
g13
((lp147
tp148
Rp149
sg23
I4294967232
sbag0
(g8
g2
Ntp150
Rp151
(dp152
g12
g13
((lp153
I1
aI2
aI3
aI4
aI5
aI6
aI7
aI8
aI9
aI10
aI11
aI12
aI13
aI14
atp154
Rp155
sg17
I00
sg18
L320L
sg19
g13
((lp156
tp157
Rp158
sg23
I4294967232
sbag0
(g8
g2
Ntp159
Rp160
(dp161
g12
g13
((lp162
I1
aI2
aI3
aI4
aI5
aI6
aI7
aI8
aI9
aI10
aI11
aI12
aI13
aI14
atp163
Rp164
sg17
I00
sg18
L768L
sg19
g13
((lp165
tp166
Rp167
sg23
I4294967232
sbag0
(g8
g2
Ntp168
Rp169
(dp170
g12
g13
((lp171
I1
aI2
aI3
aI4
aI5
aI6
aI7
aI8
aI9
aI10
aI11
aI12
aI13
aI14
atp172
Rp173
sg17
I00
sg18
L192L
sg19
g13
((lp174
tp175
Rp176
sg23
I4294967232
sbag0
(g8
g2
Ntp177
Rp178
(dp179
g12
g13
((lp180
I1
aI2
aI3
aI4
aI5
aI6
aI7
aI8
aI9
aI10
aI11
aI12
aI13
aI14
atp181
Rp182
sg17
I00
sg18
L0L
sg19
g13
((lp183
tp184
Rp185
sg23
I4294967232
sbag0
(g8
g2
Ntp186
Rp187
(dp188
g12
g13
((lp189
I1
aI2
aI3
aI4
aI5
aI6
aI7
aI8
aI9
aI10
aI11
aI12
aI13
aI14
atp190
Rp191
sg17
I00
sg18
L1472L
sg19
g13
((lp192
I3
atp193
Rp194
sg23
I4294967232
sbag0
(g8
g2
Ntp195
Rp196
(dp197
g12
g13
((lp198
I1
aI2
aI3
aI4
aI5
aI6
aI7
aI8
aI9
aI10
aI11
aI12
aI13
aI14
atp199
Rp200
sg17
I00
sg18
L64L
sg19
g13
((lp201
tp202
Rp203
sg23
I4294967232
sbag0
(g8
g2
Ntp204
Rp205
(dp206
g12
g13
((lp207
I1
aI2
aI3
aI4
aI5
aI6
aI7
aI8
aI9
aI10
aI11
aI12
aI13
aI14
atp208
Rp209
sg17
I00
sg18
L704L
sg19
g13
((lp210
tp211
Rp212
sg23
I4294967232
sbag0
(g8
g2
Ntp213
Rp214
(dp215
g12
g13
((lp216
I1
aI2
aI3
aI4
aI5
aI6
aI7
aI8
aI9
aI10
aI11
aI12
aI13
aI14
atp217
Rp218
sg17
I00
sg18
L1280L
sg19
g13
((lp219
I3
atp220
Rp221
sg23
I4294967232
sbag0
(g8
g2
Ntp222
Rp223
(dp224
g12
g13
((lp225
I1
aI2
aI3
aI4
aI5
aI6
aI7
aI8
aI9
aI10
aI11
aI12
aI13
aI14
atp226
Rp227
sg17
I00
sg18
L1856L
sg19
g13
((lp228
I3
atp229
Rp230
sg23
I4294967232
sbag0
(g8
g2
Ntp231
Rp232
(dp233
g12
g13
((lp234
I1
aI2
aI3
aI4
aI5
aI6
aI7
aI8
aI9
aI10
aI11
aI12
aI13
aI14
atp235
Rp236
sg17
I00
sg18
L576L
sg19
g13
((lp237
tp238
Rp239
sg23
I4294967232
sbag0
(g8
g2
Ntp240
Rp241
(dp242
g12
g13
((lp243
I1
aI2
aI3
aI4
aI5
aI6
aI7
aI8
aI9
aI10
aI11
aI12
aI13
aI14
atp244
Rp245
sg17
I00
sg18
L1152L
sg19
g13
((lp246
I3
atp247
Rp248
sg23
I4294967232
sbag0
(g8
g2
Ntp249
Rp250
(dp251
g12
g13
((lp252
I1
aI2
aI3
aI4
aI5
aI6
aI7
aI8
aI9
aI10
aI11
aI12
aI13
aI14
atp253
Rp254
sg17
I00
sg18
L1792L
sg19
g13
((lp255
I3
atp256
Rp257
sg23
I4294967232
sbag0
(g8
g2
Ntp258
Rp259
(dp260
g12
g13
((lp261
I1
aI2
aI3
aI4
aI5
aI6
aI7
aI8
aI9
aI10
aI11
aI12
aI13
aI14
atp262
Rp263
sg17
I00
sg18
L448L
sg19
g13
((lp264
tp265
Rp266
sg23
I4294967232
sbag0
(g8
g2
Ntp267
Rp268
(dp269
g12
g13
((lp270
I1
aI2
aI3
aI4
aI5
aI6
aI7
aI8
aI9
aI10
aI11
aI12
aI13
aI14
atp271
Rp272
sg17
I00
sg18
L1920L
sg19
g13
((lp273
I3
atp274
Rp275
sg23
I4294967264
sbag0
(g8
g2
Ntp276
Rp277
(dp278
g12
g13
((lp279
I1
aI2
aI3
aI4
aI5
aI6
aI7
aI8
aI9
aI10
aI11
aI12
aI13
aI14
atp280
Rp281
sg17
I00
sg18
L1728L
sg19
g13
((lp282
I3
atp283
Rp284
sg23
I4294967232
sbag0
(g8
g2
Ntp285
Rp286
(dp287
g12
g13
((lp288
I1
aI2
aI3
aI4
aI5
aI6
aI7
aI8
aI9
aI10
aI11
aI12
aI13
aI14
atp289
Rp290
sg17
I00
sg18
L1024L
sg19
g13
((lp291
I3
atp292
Rp293
sg23
I4294967232
sbasS'_multicast_routing_entries_by_routing_entry_key'
p294
ccollections
OrderedDict
p295
((lp296
(lp297
(L1664L
I4294967232
tp298
ag10
aa(lp299
(L1600L
I4294967232
tp300
ag25
aa(lp301
(L1408L
I4294967232
tp302
ag34
aa(lp303
(L1344L
I4294967232
tp304
ag43
aa(lp305
(L256L
I4294967232
tp306
ag52
aa(lp307
(L1216L
I4294967232
tp308
ag61
aa(lp309
(L1088L
I4294967232
tp310
ag70
aa(lp311
(L960L
I4294967232
tp312
ag79
aa(lp313
(L896L
I4294967232
tp314
ag88
aa(lp315
(L832L
I4294967232
tp316
ag97
aa(lp317
(L1536L
I4294967232
tp318
ag106
aa(lp319
(L640L
I4294967232
tp320
ag115
aa(lp321
(L512L
I4294967232
tp322
ag124
aa(lp323
(L128L
I4294967232
tp324
ag133
aa(lp325
(L384L
I4294967232
tp326
ag142
aa(lp327
(L320L
I4294967232
tp328
ag151
aa(lp329
(L768L
I4294967232
tp330
ag160
aa(lp331
(L192L
I4294967232
tp332
ag169
aa(lp333
(L0L
I4294967232
tp334
ag178
aa(lp335
(L1472L
I4294967232
tp336
ag187
aa(lp337
(L64L
I4294967232
tp338
ag196
aa(lp339
(L704L
I4294967232
tp340
ag205
aa(lp341
(L1280L
I4294967232
tp342
ag214
aa(lp343
(L1856L
I4294967232
tp344
ag223
aa(lp345
(L576L
I4294967232
tp346
ag232
aa(lp347
(L1152L
I4294967232
tp348
ag241
aa(lp349
(L1792L
I4294967232
tp350
ag250
aa(lp351
(L448L
I4294967232
tp352
ag259
aa(lp353
(L1920L
I4294967264
tp354
ag268
aa(lp355
(L1728L
I4294967232
tp356
ag277
aa(lp357
(L1024L
I4294967232
tp358
ag286
aatp359
Rp360
sS'_y'
p361
I0
sS'_x'
p362
I1
sb.